target datalayout = "e-m:e-p270:32:32-p271:32:32-p272:64:64-i64:64-i128:128-f80:128-n8:16:32:64-S128"
target triple = "x86_64-unknown-linux-gnu"

%"class.std::__shared_count" = type { ptr }
%"class.std::_Function_base" = type { %"union.std::_Any_data", ptr }
%"union.std::_Any_data" = type { %"union.std::_Nocopy_types" }
%"union.std::_Nocopy_types" = type { { i64, i64 } }
%"class.std::shared_ptr.72" = type { %"class.std::__shared_ptr.73" }
%"class.std::__shared_ptr.73" = type { ptr, %"class.std::__shared_count" }
%"class.arrow::compute::OutputType" = type { i32, %"class.std::shared_ptr.72", %"class.std::function.105" }
%"class.std::function.105" = type { %"class.std::_Function_base", ptr }
%"class.arrow::compute::KernelSignature" = type { %"class.std::vector.113", %"class.arrow::compute::OutputType", i8, i64 }
%"class.std::vector.113" = type { %"struct.std::_Vector_base.114" }
%"struct.std::_Vector_base.114" = type { %"struct.std::_Vector_base<arrow::compute::InputType, std::allocator<arrow::compute::InputType>>::_Vector_impl" }
%"struct.std::_Vector_base<arrow::compute::InputType, std::allocator<arrow::compute::InputType>>::_Vector_impl" = type { %"struct.std::_Vector_base<arrow::compute::InputType, std::allocator<arrow::compute::InputType>>::_Vector_impl_data" }
%"struct.std::_Vector_base<arrow::compute::InputType, std::allocator<arrow::compute::InputType>>::_Vector_impl_data" = type { ptr, ptr, ptr }

; Function Attrs: mustprogress nounwind uwtable
define linkonce_odr void @_ZNSt15__new_allocatorIN5arrow7compute9InputTypeEEC2ERKS3_(ptr noundef nonnull align 1 dereferenceable(1) %this, ptr noundef nonnull align 1 dereferenceable(1) %0) unnamed_addr #2 comdat align 2 {
entry:
  %this.addr = alloca ptr, align 8
  %.addr = alloca ptr, align 8
  store ptr %this, ptr %this.addr, align 8
  store ptr %0, ptr %.addr, align 8
  ret void
}

; Function Attrs: mustprogress nounwind uwtable
define linkonce_odr void @_ZNSt12_Vector_baseIN5arrow7compute9InputTypeESaIS2_EE17_Vector_impl_dataC2EOS5_(ptr noundef nonnull align 8 dereferenceable(24) %this, ptr noundef nonnull align 8 dereferenceable(24) %__x) unnamed_addr #2 comdat align 2 {
entry:
  %this.addr = alloca ptr, align 8
  %__x.addr = alloca ptr, align 8
  store ptr %this, ptr %this.addr, align 8
  store ptr %__x, ptr %__x.addr, align 8
  %this1 = load ptr, ptr %this.addr, align 8
  %_M_start = getelementptr inbounds %"struct.std::_Vector_base<arrow::compute::InputType, std::allocator<arrow::compute::InputType>>::_Vector_impl_data", ptr %this1, i32 0, i32 0
  %0 = load ptr, ptr %__x.addr, align 8
  %_M_start2 = getelementptr inbounds %"struct.std::_Vector_base<arrow::compute::InputType, std::allocator<arrow::compute::InputType>>::_Vector_impl_data", ptr %0, i32 0, i32 0
  %1 = load ptr, ptr %_M_start2, align 8
  store ptr %1, ptr %_M_start, align 8
  %_M_finish = getelementptr inbounds %"struct.std::_Vector_base<arrow::compute::InputType, std::allocator<arrow::compute::InputType>>::_Vector_impl_data", ptr %this1, i32 0, i32 1
  %2 = load ptr, ptr %__x.addr, align 8
  %_M_finish3 = getelementptr inbounds %"struct.std::_Vector_base<arrow::compute::InputType, std::allocator<arrow::compute::InputType>>::_Vector_impl_data", ptr %2, i32 0, i32 1
  %3 = load ptr, ptr %_M_finish3, align 8
  store ptr %3, ptr %_M_finish, align 8
  %_M_end_of_storage = getelementptr inbounds %"struct.std::_Vector_base<arrow::compute::InputType, std::allocator<arrow::compute::InputType>>::_Vector_impl_data", ptr %this1, i32 0, i32 2
  %4 = load ptr, ptr %__x.addr, align 8
  %_M_end_of_storage4 = getelementptr inbounds %"struct.std::_Vector_base<arrow::compute::InputType, std::allocator<arrow::compute::InputType>>::_Vector_impl_data", ptr %4, i32 0, i32 2
  %5 = load ptr, ptr %_M_end_of_storage4, align 8
  store ptr %5, ptr %_M_end_of_storage, align 8
  %6 = load ptr, ptr %__x.addr, align 8
  %_M_end_of_storage5 = getelementptr inbounds %"struct.std::_Vector_base<arrow::compute::InputType, std::allocator<arrow::compute::InputType>>::_Vector_impl_data", ptr %6, i32 0, i32 2
  store ptr null, ptr %_M_end_of_storage5, align 8
  %7 = load ptr, ptr %__x.addr, align 8
  %_M_finish6 = getelementptr inbounds %"struct.std::_Vector_base<arrow::compute::InputType, std::allocator<arrow::compute::InputType>>::_Vector_impl_data", ptr %7, i32 0, i32 1
  store ptr null, ptr %_M_finish6, align 8
  %8 = load ptr, ptr %__x.addr, align 8
  %_M_start7 = getelementptr inbounds %"struct.std::_Vector_base<arrow::compute::InputType, std::allocator<arrow::compute::InputType>>::_Vector_impl_data", ptr %8, i32 0, i32 0
  store ptr null, ptr %_M_start7, align 8
  ret void
}

; Function Attrs: mustprogress nounwind uwtable
define linkonce_odr void @_ZNSaIN5arrow7compute9InputTypeEEC2ERKS2_(ptr noundef nonnull align 1 dereferenceable(1) %this, ptr noundef nonnull align 1 dereferenceable(1) %__a) unnamed_addr #2 comdat align 2 {
entry:
  %this.addr = alloca ptr, align 8
  %__a.addr = alloca ptr, align 8
  store ptr %this, ptr %this.addr, align 8
  store ptr %__a, ptr %__a.addr, align 8
  %this1 = load ptr, ptr %this.addr, align 8
  %0 = load ptr, ptr %__a.addr, align 8
  call void @_ZNSt15__new_allocatorIN5arrow7compute9InputTypeEEC2ERKS3_(ptr noundef nonnull align 1 dereferenceable(1) %this1, ptr noundef nonnull align 1 dereferenceable(1) %0) #12
  ret void
}

; Function Attrs: mustprogress nounwind uwtable
define linkonce_odr void @_ZNSt12_Vector_baseIN5arrow7compute9InputTypeESaIS2_EE12_Vector_implC2EOS5_(ptr noundef nonnull align 8 dereferenceable(24) %this, ptr noundef nonnull align 8 dereferenceable(24) %__x) unnamed_addr #2 comdat align 2 {
entry:
  %this.addr = alloca ptr, align 8
  %__x.addr = alloca ptr, align 8
  store ptr %this, ptr %this.addr, align 8
  store ptr %__x, ptr %__x.addr, align 8
  %this1 = load ptr, ptr %this.addr, align 8
  %0 = load ptr, ptr %__x.addr, align 8
  call void @_ZNSaIN5arrow7compute9InputTypeEEC2ERKS2_(ptr noundef nonnull align 1 dereferenceable(1) %this1, ptr noundef nonnull align 1 dereferenceable(1) %0) #12
  %1 = load ptr, ptr %__x.addr, align 8
  call void @_ZNSt12_Vector_baseIN5arrow7compute9InputTypeESaIS2_EE17_Vector_impl_dataC2EOS5_(ptr noundef nonnull align 8 dereferenceable(24) %this1, ptr noundef nonnull align 8 dereferenceable(24) %1) #12
  ret void
}

; Function Attrs: mustprogress nounwind uwtable
define linkonce_odr void @_ZNSt12_Vector_baseIN5arrow7compute9InputTypeESaIS2_EEC2EOS4_(ptr noundef nonnull align 8 dereferenceable(24) %this, ptr noundef nonnull align 8 dereferenceable(24) %0) unnamed_addr #2 comdat align 2 {
entry:
  %this.addr = alloca ptr, align 8
  %.addr = alloca ptr, align 8
  store ptr %this, ptr %this.addr, align 8
  store ptr %0, ptr %.addr, align 8
  %this1 = load ptr, ptr %this.addr, align 8
  %_M_impl = getelementptr inbounds %"struct.std::_Vector_base.114", ptr %this1, i32 0, i32 0
  %1 = load ptr, ptr %.addr, align 8
  %_M_impl2 = getelementptr inbounds %"struct.std::_Vector_base.114", ptr %1, i32 0, i32 0
  call void @_ZNSt12_Vector_baseIN5arrow7compute9InputTypeESaIS2_EE12_Vector_implC2EOS5_(ptr noundef nonnull align 8 dereferenceable(24) %_M_impl, ptr noundef nonnull align 8 dereferenceable(24) %_M_impl2) #12
  ret void
}

; Function Attrs: mustprogress nounwind uwtable
define linkonce_odr noundef i64 @_ZNKSt6vectorIN5arrow7compute9InputTypeESaIS2_EE4sizeEv(ptr noundef nonnull align 8 dereferenceable(24) %this) #2 comdat align 2 {
entry:
  %this.addr = alloca ptr, align 8
  store ptr %this, ptr %this.addr, align 8
  %this1 = load ptr, ptr %this.addr, align 8
  %_M_impl = getelementptr inbounds %"struct.std::_Vector_base.114", ptr %this1, i32 0, i32 0
  %_M_finish = getelementptr inbounds %"struct.std::_Vector_base<arrow::compute::InputType, std::allocator<arrow::compute::InputType>>::_Vector_impl_data", ptr %_M_impl, i32 0, i32 1
  %0 = load ptr, ptr %_M_finish, align 8
  %_M_impl2 = getelementptr inbounds %"struct.std::_Vector_base.114", ptr %this1, i32 0, i32 0
  %_M_start = getelementptr inbounds %"struct.std::_Vector_base<arrow::compute::InputType, std::allocator<arrow::compute::InputType>>::_Vector_impl_data", ptr %_M_impl2, i32 0, i32 0
  %1 = load ptr, ptr %_M_start, align 8
  %sub.ptr.lhs.cast = ptrtoint ptr %0 to i64
  %sub.ptr.rhs.cast = ptrtoint ptr %1 to i64
  %sub.ptr.sub = sub i64 %sub.ptr.lhs.cast, %sub.ptr.rhs.cast
  %sub.ptr.div = sdiv exact i64 %sub.ptr.sub, 40
  ret i64 %sub.ptr.div
}

; Function Attrs: mustprogress nounwind uwtable
define linkonce_odr void @_ZNSt6vectorIN5arrow7compute9InputTypeESaIS2_EEC2EOS4_(ptr noundef nonnull align 8 dereferenceable(24) %this, ptr noundef nonnull align 8 dereferenceable(24) %0) unnamed_addr #2 comdat align 2 {
entry:
  %this.addr = alloca ptr, align 8
  %.addr = alloca ptr, align 8
  store ptr %this, ptr %this.addr, align 8
  store ptr %0, ptr %.addr, align 8
  %this1 = load ptr, ptr %this.addr, align 8
  %1 = load ptr, ptr %.addr, align 8
  call void @_ZNSt12_Vector_baseIN5arrow7compute9InputTypeESaIS2_EEC2EOS4_(ptr noundef nonnull align 8 dereferenceable(24) %this1, ptr noundef nonnull align 8 dereferenceable(24) %1) #12
  ret void
}

; Function Attrs: mustprogress uwtable
define void @_ZN5arrow7compute15KernelSignatureC2ESt6vectorINS0_9InputTypeESaIS3_EENS0_10OutputTypeEb(ptr noundef nonnull align 8 dereferenceable(96) %this, ptr noundef %in_types, ptr noundef %out_type, i1 noundef zeroext %is_varargs) unnamed_addr #0 align 2 personality ptr @__gxx_personality_v0 {
entry:
  %this.addr = alloca ptr, align 8
  %in_types.indirect_addr = alloca ptr, align 8
  %out_type.indirect_addr = alloca ptr, align 8
  %is_varargs.addr = alloca i8, align 1
  %exn.slot = alloca ptr, align 8
  %ehselector.slot = alloca i32, align 4
  store ptr %this, ptr %this.addr, align 8
  store ptr %in_types, ptr %in_types.indirect_addr, align 8
  store ptr %out_type, ptr %out_type.indirect_addr, align 8
  %frombool = zext i1 %is_varargs to i8
  store i8 %frombool, ptr %is_varargs.addr, align 1
  %this1 = load ptr, ptr %this.addr, align 8
  %in_types_ = getelementptr inbounds %"class.arrow::compute::KernelSignature", ptr %this1, i32 0, i32 0
  call void @_ZNSt6vectorIN5arrow7compute9InputTypeESaIS2_EEC2EOS4_(ptr noundef nonnull align 8 dereferenceable(24) %in_types_, ptr noundef nonnull align 8 dereferenceable(24) %in_types) #12
  %out_type_ = getelementptr inbounds %"class.arrow::compute::KernelSignature", ptr %this1, i32 0, i32 1
  invoke void @_ZN5arrow7compute10OutputTypeC2EOS1_(ptr noundef nonnull align 8 dereferenceable(56) %out_type_, ptr noundef nonnull align 8 dereferenceable(56) %out_type)
          to label %invoke.cont unwind label %lpad

invoke.cont:                                      ; preds = %entry
  %is_varargs_ = getelementptr inbounds %"class.arrow::compute::KernelSignature", ptr %this1, i32 0, i32 2
  %0 = load i8, ptr %is_varargs.addr, align 1
  %tobool = trunc i8 %0 to i1
  %frombool2 = zext i1 %tobool to i8
  store i8 %frombool2, ptr %is_varargs_, align 8
  %hash_code_ = getelementptr inbounds %"class.arrow::compute::KernelSignature", ptr %this1, i32 0, i32 3
  store i64 0, ptr %hash_code_, align 8
  br label %while.cond

while.cond:                                       ; preds = %lor.end, %invoke.cont
  br i1 false, label %while.body, label %while.end

while.body:                                       ; preds = %while.cond
  %1 = load i8, ptr %is_varargs.addr, align 1
  %tobool3 = trunc i8 %1 to i1
  br i1 %tobool3, label %lor.rhs, label %lor.end

lor.rhs:                                          ; preds = %while.body
  %2 = load i8, ptr %is_varargs.addr, align 1
  %tobool4 = trunc i8 %2 to i1
  br i1 %tobool4, label %land.rhs, label %land.end

land.rhs:                                         ; preds = %lor.rhs
  %in_types_5 = getelementptr inbounds %"class.arrow::compute::KernelSignature", ptr %this1, i32 0, i32 0
  %call = call noundef i64 @_ZNKSt6vectorIN5arrow7compute9InputTypeESaIS2_EE4sizeEv(ptr noundef nonnull align 8 dereferenceable(24) %in_types_5) #12
  br label %land.end

land.end:                                         ; preds = %land.rhs, %lor.rhs
  br label %lor.end

lor.end:                                          ; preds = %land.end, %while.body
  br label %while.cond, !llvm.loop !21

lpad:                                             ; preds = %entry
  %3 = landingpad { ptr, i32 }
          cleanup
  %4 = extractvalue { ptr, i32 } %3, 0
  store ptr %4, ptr %exn.slot, align 8
  %5 = extractvalue { ptr, i32 } %3, 1
  store i32 %5, ptr %ehselector.slot, align 4
  call void @_ZNSt6vectorIN5arrow7compute9InputTypeESaIS2_EED2Ev(ptr noundef nonnull align 8 dereferenceable(24) %in_types_) #12
  br label %eh.resume

while.end:                                        ; preds = %while.cond
  br label %while.cond6

while.cond6:                                      ; preds = %while.body7, %while.end
  br i1 false, label %while.body7, label %while.end8

while.body7:                                      ; preds = %while.cond6
  br label %while.cond6, !llvm.loop !22

while.end8:                                       ; preds = %while.cond6
  ret void

eh.resume:                                        ; preds = %lpad
  %exn = load ptr, ptr %exn.slot, align 8
  %sel = load i32, ptr %ehselector.slot, align 4
  %lpad.val = insertvalue { ptr, i32 } poison, ptr %exn, 0
  %lpad.val9 = insertvalue { ptr, i32 } %lpad.val, i32 %sel, 1
  resume { ptr, i32 } %lpad.val9
}