; Function Attrs: mustprogress uwtable
define void @_ZN5arrow7compute15KernelSignatureC2ESt6vectorINS0_9InputTypeESaIS3_EENS0_10OutputTypeEb(ptr noundef nonnull align 8 dereferenceable(96) %this, ptr nocapture noundef %in_types, ptr noundef nonnull %out_type, i1 noundef zeroext %is_varargs) unnamed_addr #0 align 2 personality ptr @__gxx_personality_v0 {
entry:
  %0 = load ptr, ptr %in_types, align 8
  store ptr %0, ptr %this, align 8
  %_M_finish.i.i.i.i = getelementptr inbounds i8, ptr %this, i64 8
  %_M_finish3.i.i.i.i = getelementptr inbounds i8, ptr %in_types, i64 8
  %1 = load ptr, ptr %_M_finish3.i.i.i.i, align 8
  store ptr %1, ptr %_M_finish.i.i.i.i, align 8
  %_M_end_of_storage.i.i.i.i = getelementptr inbounds i8, ptr %this, i64 16
  %_M_end_of_storage4.i.i.i.i = getelementptr inbounds i8, ptr %in_types, i64 16
  %2 = load ptr, ptr %_M_end_of_storage4.i.i.i.i, align 8
  store ptr %2, ptr %_M_end_of_storage.i.i.i.i, align 8
  tail call void @llvm.memset.p0.i64(ptr noundef nonnull align 8 dereferenceable(24) %in_types, i8 0, i64 24, i1 false)
  %out_type_ = getelementptr inbounds i8, ptr %this, i64 24
  invoke void @_ZN5arrow7compute10OutputTypeC2EOS1_(ptr noundef nonnull align 8 dereferenceable(56) %out_type_, ptr noundef nonnull align 8 dereferenceable(56) %out_type)
          to label %invoke.cont unwind label %lpad

invoke.cont:                                      ; preds = %entry
  %frombool = zext i1 %is_varargs to i8
  %is_varargs_ = getelementptr inbounds i8, ptr %this, i64 80
  store i8 %frombool, ptr %is_varargs_, align 8
  %hash_code_ = getelementptr inbounds i8, ptr %this, i64 88
  store i64 0, ptr %hash_code_, align 8
  ret void

lpad:                                             ; preds = %entry
  %3 = landingpad { ptr, i32 }
          cleanup
  tail call void @_ZNSt6vectorIN5arrow7compute9InputTypeESaIS2_EED2Ev(ptr noundef nonnull align 8 dereferenceable(24) %this) #18
  resume { ptr, i32 } %3
}